; Function Attrs: nounwind uwtable
define range(i32 -30, 1) i32 @CVodeGetQuadErrWeights(ptr noundef %0, ptr noundef %1) local_unnamed_addr #0 {
  %3 = icmp eq ptr %0, null
  br i1 %3, label %4, label %5

4:                                                ; preds = %2
  tail call void (ptr, i32, ptr, ptr, ptr, ...) @cvProcessError(ptr noundef null, i32 noundef -21, ptr noundef nonnull @.str, ptr noundef nonnull @.str.66, ptr noundef nonnull @.str.2) #6
  br label %16

5:                                                ; preds = %2
  %6 = getelementptr inbounds nuw i8, ptr %0, i64 88
  %7 = load i32, ptr %6, align 8, !tbaa !85
  %8 = icmp eq i32 %7, 0
  br i1 %8, label %9, label %10

9:                                                ; preds = %5
  tail call void (ptr, i32, ptr, ptr, ptr, ...) @cvProcessError(ptr noundef nonnull %0, i32 noundef -30, ptr noundef nonnull @.str, ptr noundef nonnull @.str.66, ptr noundef nonnull @.str.64) #6
  br label %16

10:                                               ; preds = %5
  %11 = getelementptr inbounds nuw i8, ptr %0, i64 104
  %12 = load i32, ptr %11, align 8, !tbaa !48
  %.not = icmp eq i32 %12, 0
  br i1 %.not, label %16, label %13

13:                                               ; preds = %10
  %14 = getelementptr inbounds nuw i8, ptr %0, i64 568
  %15 = load ptr, ptr %14, align 8, !tbaa !88
  tail call void @N_VScale(double noundef 1.000000e+00, ptr noundef %15, ptr noundef %1) #6
  br label %16

16:                                               ; preds = %10, %13, %9, %4
  %.0 = phi i32 [ -21, %4 ], [ -30, %9 ], [ 0, %13 ], [ 0, %10 ]
  ret i32 %.0
}